; Function Attrs: mustprogress uwtable
define void @_ZN8facebook5velox7process11getHostNameB5cxx11Ev(ptr noalias sret(%"class.std::__cxx11::basic_string") align 8 %agg.result) local_unnamed_addr #0 personality ptr @__gxx_personality_v0 {
entry:
  %hostbuf = alloca [256 x i8], align 16
  %ref.tmp = alloca %"class.std::allocator", align 1
  %ref.tmp2 = alloca %"class.std::allocator", align 1
  %call = call i32 @gethostname(ptr noundef nonnull %hostbuf, i64 noundef 256) #16
  %cmp = icmp slt i32 %call, 0
  br i1 %cmp, label %if.then, label %if.else

if.then:                                          ; preds = %entry
  call void @_ZNSaIcEC1Ev(ptr noundef nonnull align 1 dereferenceable(1) %ref.tmp) #16
  %call.i2 = invoke noundef ptr @_ZNSt7__cxx1112basic_stringIcSt11char_traitsIcESaIcEE13_M_local_dataEv(ptr noundef nonnull align 8 dereferenceable(32) %agg.result)
          to label %call.i.noexc unwind label %lpad

call.i.noexc:                                     ; preds = %if.then
  invoke void @_ZNSt7__cxx1112basic_stringIcSt11char_traitsIcESaIcEE12_Alloc_hiderC1EPcRKS3_(ptr noundef nonnull align 8 dereferenceable(32) %agg.result, ptr noundef %call.i2, ptr noundef nonnull align 1 dereferenceable(1) %ref.tmp)
          to label %.noexc unwind label %lpad

.noexc:                                           ; preds = %call.i.noexc
  invoke void @_ZNSt7__cxx1112basic_stringIcSt11char_traitsIcESaIcEE12_M_constructIPKcEEvT_S8_St20forward_iterator_tag(ptr noundef nonnull align 8 dereferenceable(32) %agg.result, ptr noundef nonnull @.str.2, ptr noundef nonnull @.str.2)
          to label %return unwind label %lpad.i

lpad.i:                                           ; preds = %.noexc
  %0 = landingpad { ptr, i32 }
          cleanup
  call void @_ZNSaIcED2Ev(ptr noundef nonnull align 8 dereferenceable(32) %agg.result) #16
  br label %eh.resume

lpad:                                             ; preds = %call.i.noexc, %if.then
  %1 = landingpad { ptr, i32 }
          cleanup
  br label %eh.resume

if.else:                                          ; preds = %entry
  %arrayidx = getelementptr inbounds nuw i8, ptr %hostbuf, i64 255
  store i8 0, ptr %arrayidx, align 1
  call void @_ZNSaIcEC1Ev(ptr noundef nonnull align 1 dereferenceable(1) %ref.tmp2) #16
  %call.i7 = invoke noundef ptr @_ZNSt7__cxx1112basic_stringIcSt11char_traitsIcESaIcEE13_M_local_dataEv(ptr noundef nonnull align 8 dereferenceable(32) %agg.result)
          to label %call.i.noexc6 unwind label %lpad3

call.i.noexc6:                                    ; preds = %if.else
  invoke void @_ZNSt7__cxx1112basic_stringIcSt11char_traitsIcESaIcEE12_Alloc_hiderC1EPcRKS3_(ptr noundef nonnull align 8 dereferenceable(32) %agg.result, ptr noundef %call.i7, ptr noundef nonnull align 1 dereferenceable(1) %ref.tmp2)
          to label %.noexc8 unwind label %lpad3

.noexc8:                                          ; preds = %call.i.noexc6
  %call.i.i3 = call noundef i64 @strlen(ptr noundef nonnull dereferenceable(1) %hostbuf) #16
  %add.ptr.i4 = getelementptr inbounds i8, ptr %hostbuf, i64 %call.i.i3
  invoke void @_ZNSt7__cxx1112basic_stringIcSt11char_traitsIcESaIcEE12_M_constructIPKcEEvT_S8_St20forward_iterator_tag(ptr noundef nonnull align 8 dereferenceable(32) %agg.result, ptr noundef nonnull %hostbuf, ptr noundef nonnull %add.ptr.i4)
          to label %return unwind label %lpad.i5

lpad.i5:                                          ; preds = %.noexc8
  %2 = landingpad { ptr, i32 }
          cleanup
  call void @_ZNSaIcED2Ev(ptr noundef nonnull align 8 dereferenceable(32) %agg.result) #16
  br label %eh.resume

lpad3:                                            ; preds = %call.i.noexc6, %if.else
  %3 = landingpad { ptr, i32 }
          cleanup
  br label %eh.resume

return:                                           ; preds = %.noexc8, %.noexc
  %ref.tmp2.sink = phi ptr [ %ref.tmp, %.noexc ], [ %ref.tmp2, %.noexc8 ]
  call void @_ZNSaIcED1Ev(ptr noundef nonnull align 1 dereferenceable(1) %ref.tmp2.sink) #16
  ret void

eh.resume:                                        ; preds = %lpad3, %lpad.i5, %lpad, %lpad.i
  %ref.tmp2.sink11 = phi ptr [ %ref.tmp, %lpad.i ], [ %ref.tmp, %lpad ], [ %ref.tmp2, %lpad.i5 ], [ %ref.tmp2, %lpad3 ]
  %.pn = phi { ptr, i32 } [ %0, %lpad.i ], [ %1, %lpad ], [ %2, %lpad.i5 ], [ %3, %lpad3 ]
  call void @_ZNSaIcED1Ev(ptr noundef nonnull align 1 dereferenceable(1) %ref.tmp2.sink11) #16
  resume { ptr, i32 } %.pn
}